; Function Attrs: mustprogress nounwind uwtable
define hidden void @_ZNK4llvh5Twine3strB5cxx11Ev(ptr noalias sret(%"class.std::__cxx11::basic_string") align 8 %agg.result, ptr noundef nonnull align 8 dereferenceable(18) %this) local_unnamed_addr #0 align 2 {
entry:
  %ref.tmp.i = alloca %"class.std::allocator", align 1
  %Stream.i = alloca %"class.llvh::raw_string_ostream", align 8
  %Vec = alloca %"class.llvh::SmallString", align 8
  %LHSKind = getelementptr inbounds i8, ptr %this, i64 16
  %0 = load i8, ptr %LHSKind, align 8
  %cmp = icmp eq i8 %0, 4
  %RHSKind = getelementptr inbounds i8, ptr %this, i64 17
  %1 = load i8, ptr %RHSKind, align 1
  %cmp3 = icmp eq i8 %1, 1
  %or.cond = select i1 %cmp, i1 %cmp3, i1 false
  br i1 %or.cond, label %if.then, label %if.end

if.then:                                          ; preds = %entry
  %2 = load ptr, ptr %this, align 8
  tail call void @_ZNSt7__cxx1112basic_stringIcSt11char_traitsIcESaIcEEC1ERKS4_(ptr noundef nonnull align 8 dereferenceable(32) %agg.result, ptr noundef nonnull align 8 dereferenceable(32) %2) #8
  br label %return

if.end:                                           ; preds = %entry
  %cmp6 = icmp eq i8 %0, 7
  %or.cond1 = select i1 %cmp6, i1 %cmp3, i1 false
  br i1 %or.cond1, label %if.then11, label %if.end13

if.then11:                                        ; preds = %if.end
  %3 = load ptr, ptr %this, align 8
  call void @llvm.lifetime.start.p0(i64 48, ptr nonnull %Stream.i)
  tail call void @_ZNSt7__cxx1112basic_stringIcSt11char_traitsIcESaIcEEC1Ev(ptr noundef nonnull align 8 dereferenceable(32) %agg.result) #8
  %BufferMode.i.i.i = getelementptr inbounds i8, ptr %Stream.i, i64 32
  store i32 1, ptr %BufferMode.i.i.i, align 8, !noalias !4
  %OutBufStart.i.i.i = getelementptr inbounds i8, ptr %Stream.i, i64 8
  call void @llvm.memset.p0.i64(ptr noundef nonnull align 8 dereferenceable(24) %OutBufStart.i.i.i, i8 0, i64 24, i1 false), !noalias !4
  store ptr getelementptr inbounds ({ [13 x ptr] }, ptr @_ZTVN4llvh18raw_string_ostreamE, i64 0, i32 0, i64 2), ptr %Stream.i, align 8, !noalias !4
  %OS.i.i = getelementptr inbounds i8, ptr %Stream.i, i64 40
  store ptr %agg.result, ptr %OS.i.i, align 8, !noalias !4
  %call.i = call noundef nonnull align 8 dereferenceable(36) ptr @_ZN4llvh11raw_ostreamlsERKNS_19formatv_object_baseE(ptr noundef nonnull align 8 dereferenceable(36) %Stream.i, ptr noundef nonnull align 8 dereferenceable(64) %3) #8
  %OutBufCur.i.i = getelementptr inbounds i8, ptr %Stream.i, i64 24
  %4 = load ptr, ptr %OutBufCur.i.i, align 8, !noalias !4
  %5 = load ptr, ptr %OutBufStart.i.i.i, align 8, !noalias !4
  %cmp.not.i.i = icmp eq ptr %4, %5
  br i1 %cmp.not.i.i, label %_ZNK4llvh19formatv_object_base3strB5cxx11Ev.exit, label %if.then.i.i

if.then.i.i:                                      ; preds = %if.then11
  call void @_ZN4llvh11raw_ostream14flush_nonemptyEv(ptr noundef nonnull align 8 dereferenceable(36) %Stream.i) #8
  br label %_ZNK4llvh19formatv_object_base3strB5cxx11Ev.exit

_ZNK4llvh19formatv_object_base3strB5cxx11Ev.exit: ; preds = %if.then11, %if.then.i.i
  call void @_ZN4llvh18raw_string_ostreamD1Ev(ptr noundef nonnull align 8 dereferenceable(48) %Stream.i) #8
  call void @llvm.lifetime.end.p0(i64 48, ptr nonnull %Stream.i)
  br label %return

if.end13:                                         ; preds = %if.end
  %add.ptr.i.i.i.i.i.i = getelementptr inbounds i8, ptr %Vec, i64 16
  store ptr %add.ptr.i.i.i.i.i.i, ptr %Vec, align 8
  %Size.i.i.i.i.i.i = getelementptr inbounds i8, ptr %Vec, i64 8
  store i32 0, ptr %Size.i.i.i.i.i.i, align 8
  %Capacity2.i.i.i.i.i.i = getelementptr inbounds i8, ptr %Vec, i64 12
  store i32 256, ptr %Capacity2.i.i.i.i.i.i, align 4
  %call = call { ptr, i64 } @_ZNK4llvh5Twine11toStringRefERNS_15SmallVectorImplIcEE(ptr noundef nonnull align 8 dereferenceable(18) %this, ptr noundef nonnull align 8 dereferenceable(16) %Vec)
  %6 = extractvalue { ptr, i64 } %call, 0
  call void @llvm.lifetime.start.p0(i64 1, ptr nonnull %ref.tmp.i)
  %tobool.not.i = icmp eq ptr %6, null
  br i1 %tobool.not.i, label %if.then.i, label %if.end.i

if.then.i:                                        ; preds = %if.end13
  call void @_ZNSt7__cxx1112basic_stringIcSt11char_traitsIcESaIcEEC1Ev(ptr noundef nonnull align 8 dereferenceable(32) %agg.result) #8
  br label %_ZNK4llvh9StringRef3strB5cxx11Ev.exit

if.end.i:                                         ; preds = %if.end13
  %7 = extractvalue { ptr, i64 } %call, 1
  call void @_ZNSaIcEC1Ev(ptr noundef nonnull align 1 dereferenceable(1) %ref.tmp.i) #8, !noalias !7
  call void @_ZNSt7__cxx1112basic_stringIcSt11char_traitsIcESaIcEEC1EPKcmRKS3_(ptr noundef nonnull align 8 dereferenceable(32) %agg.result, ptr noundef nonnull %6, i64 noundef %7, ptr noundef nonnull align 1 dereferenceable(1) %ref.tmp.i) #8
  call void @_ZNSaIcED1Ev(ptr noundef nonnull align 1 dereferenceable(1) %ref.tmp.i) #8
  br label %_ZNK4llvh9StringRef3strB5cxx11Ev.exit

_ZNK4llvh9StringRef3strB5cxx11Ev.exit:            ; preds = %if.then.i, %if.end.i
  call void @llvm.lifetime.end.p0(i64 1, ptr nonnull %ref.tmp.i)
  %8 = load ptr, ptr %Vec, align 8
  %cmp.i.i.i.i = icmp eq ptr %8, %add.ptr.i.i.i.i.i.i
  br i1 %cmp.i.i.i.i, label %return, label %if.then.i.i.i

if.then.i.i.i:                                    ; preds = %_ZNK4llvh9StringRef3strB5cxx11Ev.exit
  call void @free(ptr noundef %8) #8
  br label %return

return:                                           ; preds = %if.then.i.i.i, %_ZNK4llvh9StringRef3strB5cxx11Ev.exit, %_ZNK4llvh19formatv_object_base3strB5cxx11Ev.exit, %if.then
  ret void
}